target datalayout = "e-m:e-p270:32:32-p271:32:32-p272:64:64-i64:64-i128:128-f80:128-n8:16:32:64-S128"
target triple = "x86_64-unknown-linux-gnu"

%struct.HIDState = type { %union.anon, i32, i32, i32, i32, i8, i8, ptr, ptr, ptr }
%union.anon = type { %struct.HIDMouseState }
%struct.HIDMouseState = type { [16 x %struct.HIDPointerEvent], i32 }
%struct.HIDPointerEvent = type { i32, i32, i32, i32 }
%struct.InputEvent = type { i32, %union.anon.0 }
%union.anon.0 = type { %struct.InputKeyEventWrapper }
%struct.InputKeyEventWrapper = type { ptr }
%struct.InputMoveEventWrapper = type { ptr }
%struct.InputMoveEvent = type { i32, i64 }
%struct.InputBtnEventWrapper = type { ptr }
%struct.InputBtnEvent = type { i32, i8 }

@.str.14 = private unnamed_addr constant [23 x i8] c"../qemu/hw/input/hid.c\00", align 1
@hid_pointer_event.bmap = internal constant [10 x i32] [i32 1, i32 4, i32 2, i32 0, i32 0, i32 8, i32 16, i32 0, i32 0, i32 0], align 16
@.str.22 = private unnamed_addr constant [21 x i8] c"hs->n < QUEUE_LENGTH\00", align 1
@__PRETTY_FUNCTION__.hid_pointer_event = private unnamed_addr constant [67 x i8] c"void hid_pointer_event(DeviceState *, QemuConsole *, InputEvent *)\00", align 1

; Function Attrs: nounwind sspstrong uwtable
define internal void @hid_pointer_event(ptr noundef %dev, ptr noundef %src, ptr noundef %evt) #0 {
entry:
  %dev.addr = alloca ptr, align 8
  %src.addr = alloca ptr, align 8
  %evt.addr = alloca ptr, align 8
  %hs = alloca ptr, align 8
  %e = alloca ptr, align 8
  %move = alloca ptr, align 8
  %btn = alloca ptr, align 8
  store ptr %dev, ptr %dev.addr, align 8
  store ptr %src, ptr %src.addr, align 8
  store ptr %evt, ptr %evt.addr, align 8
  %0 = load ptr, ptr %dev.addr, align 8
  store ptr %0, ptr %hs, align 8
  %1 = load ptr, ptr %hs, align 8
  %n = getelementptr inbounds %struct.HIDState, ptr %1, i32 0, i32 2
  %2 = load i32, ptr %n, align 8
  %cmp = icmp ult i32 %2, 16
  br i1 %cmp, label %if.then, label %if.else

if.then:                                          ; preds = %entry
  br label %if.end

if.else:                                          ; preds = %entry
  call void @__assert_fail(ptr noundef @.str.22, ptr noundef @.str.14, i32 noundef 125, ptr noundef @__PRETTY_FUNCTION__.hid_pointer_event) #7
  unreachable

if.end:                                           ; preds = %if.then
  %3 = load ptr, ptr %hs, align 8
  %4 = getelementptr inbounds %struct.HIDState, ptr %3, i32 0, i32 0
  %queue = getelementptr inbounds %struct.HIDMouseState, ptr %4, i32 0, i32 0
  %5 = load ptr, ptr %hs, align 8
  %head = getelementptr inbounds %struct.HIDState, ptr %5, i32 0, i32 1
  %6 = load i32, ptr %head, align 4
  %7 = load ptr, ptr %hs, align 8
  %n1 = getelementptr inbounds %struct.HIDState, ptr %7, i32 0, i32 2
  %8 = load i32, ptr %n1, align 8
  %add = add i32 %6, %8
  %and = and i32 %add, 15
  %idxprom = zext i32 %and to i64
  %arrayidx = getelementptr [16 x %struct.HIDPointerEvent], ptr %queue, i64 0, i64 %idxprom
  store ptr %arrayidx, ptr %e, align 8
  %9 = load ptr, ptr %evt.addr, align 8
  %type = getelementptr inbounds %struct.InputEvent, ptr %9, i32 0, i32 0
  %10 = load i32, ptr %type, align 8
  switch i32 %10, label %sw.default [
    i32 2, label %sw.bb
    i32 3, label %sw.bb17
    i32 1, label %sw.bb37
  ]

sw.bb:                                            ; preds = %if.end
  %11 = load ptr, ptr %evt.addr, align 8
  %u = getelementptr inbounds %struct.InputEvent, ptr %11, i32 0, i32 1
  %data = getelementptr inbounds %struct.InputMoveEventWrapper, ptr %u, i32 0, i32 0
  %12 = load ptr, ptr %data, align 8
  store ptr %12, ptr %move, align 8
  %13 = load ptr, ptr %move, align 8
  %axis = getelementptr inbounds %struct.InputMoveEvent, ptr %13, i32 0, i32 0
  %14 = load i32, ptr %axis, align 8
  %cmp2 = icmp eq i32 %14, 0
  br i1 %cmp2, label %if.then3, label %if.else6

if.then3:                                         ; preds = %sw.bb
  %15 = load ptr, ptr %move, align 8
  %value = getelementptr inbounds %struct.InputMoveEvent, ptr %15, i32 0, i32 1
  %16 = load i64, ptr %value, align 8
  %17 = load ptr, ptr %e, align 8
  %xdx = getelementptr inbounds %struct.HIDPointerEvent, ptr %17, i32 0, i32 0
  %18 = load i32, ptr %xdx, align 4
  %conv = sext i32 %18 to i64
  %add4 = add i64 %conv, %16
  %conv5 = trunc i64 %add4 to i32
  store i32 %conv5, ptr %xdx, align 4
  br label %if.end16

if.else6:                                         ; preds = %sw.bb
  %19 = load ptr, ptr %move, align 8
  %axis7 = getelementptr inbounds %struct.InputMoveEvent, ptr %19, i32 0, i32 0
  %20 = load i32, ptr %axis7, align 8
  %cmp8 = icmp eq i32 %20, 1
  br i1 %cmp8, label %if.then10, label %if.end15

if.then10:                                        ; preds = %if.else6
  %21 = load ptr, ptr %move, align 8
  %value11 = getelementptr inbounds %struct.InputMoveEvent, ptr %21, i32 0, i32 1
  %22 = load i64, ptr %value11, align 8
  %23 = load ptr, ptr %e, align 8
  %ydy = getelementptr inbounds %struct.HIDPointerEvent, ptr %23, i32 0, i32 1
  %24 = load i32, ptr %ydy, align 4
  %conv12 = sext i32 %24 to i64
  %add13 = add i64 %conv12, %22
  %conv14 = trunc i64 %add13 to i32
  store i32 %conv14, ptr %ydy, align 4
  br label %if.end15

if.end15:                                         ; preds = %if.then10, %if.else6
  br label %if.end16

if.end16:                                         ; preds = %if.end15, %if.then3
  br label %sw.epilog

sw.bb17:                                          ; preds = %if.end
  %25 = load ptr, ptr %evt.addr, align 8
  %u18 = getelementptr inbounds %struct.InputEvent, ptr %25, i32 0, i32 1
  %data19 = getelementptr inbounds %struct.InputMoveEventWrapper, ptr %u18, i32 0, i32 0
  %26 = load ptr, ptr %data19, align 8
  store ptr %26, ptr %move, align 8
  %27 = load ptr, ptr %move, align 8
  %axis20 = getelementptr inbounds %struct.InputMoveEvent, ptr %27, i32 0, i32 0
  %28 = load i32, ptr %axis20, align 8
  %cmp21 = icmp eq i32 %28, 0
  br i1 %cmp21, label %if.then23, label %if.else27

if.then23:                                        ; preds = %sw.bb17
  %29 = load ptr, ptr %move, align 8
  %value24 = getelementptr inbounds %struct.InputMoveEvent, ptr %29, i32 0, i32 1
  %30 = load i64, ptr %value24, align 8
  %conv25 = trunc i64 %30 to i32
  %31 = load ptr, ptr %e, align 8
  %xdx26 = getelementptr inbounds %struct.HIDPointerEvent, ptr %31, i32 0, i32 0
  store i32 %conv25, ptr %xdx26, align 4
  br label %if.end36

if.else27:                                        ; preds = %sw.bb17
  %32 = load ptr, ptr %move, align 8
  %axis28 = getelementptr inbounds %struct.InputMoveEvent, ptr %32, i32 0, i32 0
  %33 = load i32, ptr %axis28, align 8
  %cmp29 = icmp eq i32 %33, 1
  br i1 %cmp29, label %if.then31, label %if.end35

if.then31:                                        ; preds = %if.else27
  %34 = load ptr, ptr %move, align 8
  %value32 = getelementptr inbounds %struct.InputMoveEvent, ptr %34, i32 0, i32 1
  %35 = load i64, ptr %value32, align 8
  %conv33 = trunc i64 %35 to i32
  %36 = load ptr, ptr %e, align 8
  %ydy34 = getelementptr inbounds %struct.HIDPointerEvent, ptr %36, i32 0, i32 1
  store i32 %conv33, ptr %ydy34, align 4
  br label %if.end35

if.end35:                                         ; preds = %if.then31, %if.else27
  br label %if.end36

if.end36:                                         ; preds = %if.end35, %if.then23
  br label %sw.epilog

sw.bb37:                                          ; preds = %if.end
  %37 = load ptr, ptr %evt.addr, align 8
  %u38 = getelementptr inbounds %struct.InputEvent, ptr %37, i32 0, i32 1
  %data39 = getelementptr inbounds %struct.InputBtnEventWrapper, ptr %u38, i32 0, i32 0
  %38 = load ptr, ptr %data39, align 8
  store ptr %38, ptr %btn, align 8
  %39 = load ptr, ptr %btn, align 8
  %down = getelementptr inbounds %struct.InputBtnEvent, ptr %39, i32 0, i32 1
  %40 = load i8, ptr %down, align 4
  %tobool = trunc i8 %40 to i1
  br i1 %tobool, label %if.then40, label %if.else55

if.then40:                                        ; preds = %sw.bb37
  %41 = load ptr, ptr %btn, align 8
  %button = getelementptr inbounds %struct.InputBtnEvent, ptr %41, i32 0, i32 0
  %42 = load i32, ptr %button, align 4
  %idxprom41 = zext i32 %42 to i64
  %arrayidx42 = getelementptr [10 x i32], ptr @hid_pointer_event.bmap, i64 0, i64 %idxprom41
  %43 = load i32, ptr %arrayidx42, align 4
  %44 = load ptr, ptr %e, align 8
  %buttons_state = getelementptr inbounds %struct.HIDPointerEvent, ptr %44, i32 0, i32 3
  %45 = load i32, ptr %buttons_state, align 4
  %or = or i32 %45, %43
  store i32 %or, ptr %buttons_state, align 4
  %46 = load ptr, ptr %btn, align 8
  %button43 = getelementptr inbounds %struct.InputBtnEvent, ptr %46, i32 0, i32 0
  %47 = load i32, ptr %button43, align 4
  %cmp44 = icmp eq i32 %47, 3
  br i1 %cmp44, label %if.then46, label %if.else47

if.then46:                                        ; preds = %if.then40
  %48 = load ptr, ptr %e, align 8
  %dz = getelementptr inbounds %struct.HIDPointerEvent, ptr %48, i32 0, i32 2
  %49 = load i32, ptr %dz, align 4
  %dec = add i32 %49, -1
  store i32 %dec, ptr %dz, align 4
  br label %if.end54

if.else47:                                        ; preds = %if.then40
  %50 = load ptr, ptr %btn, align 8
  %button48 = getelementptr inbounds %struct.InputBtnEvent, ptr %50, i32 0, i32 0
  %51 = load i32, ptr %button48, align 4
  %cmp49 = icmp eq i32 %51, 4
  br i1 %cmp49, label %if.then51, label %if.end53

if.then51:                                        ; preds = %if.else47
  %52 = load ptr, ptr %e, align 8
  %dz52 = getelementptr inbounds %struct.HIDPointerEvent, ptr %52, i32 0, i32 2
  %53 = load i32, ptr %dz52, align 4
  %inc = add i32 %53, 1
  store i32 %inc, ptr %dz52, align 4
  br label %if.end53

if.end53:                                         ; preds = %if.then51, %if.else47
  br label %if.end54

if.end54:                                         ; preds = %if.end53, %if.then46
  br label %if.end61

if.else55:                                        ; preds = %sw.bb37
  %54 = load ptr, ptr %btn, align 8
  %button56 = getelementptr inbounds %struct.InputBtnEvent, ptr %54, i32 0, i32 0
  %55 = load i32, ptr %button56, align 4
  %idxprom57 = zext i32 %55 to i64
  %arrayidx58 = getelementptr [10 x i32], ptr @hid_pointer_event.bmap, i64 0, i64 %idxprom57
  %56 = load i32, ptr %arrayidx58, align 4
  %not = xor i32 %56, -1
  %57 = load ptr, ptr %e, align 8
  %buttons_state59 = getelementptr inbounds %struct.HIDPointerEvent, ptr %57, i32 0, i32 3
  %58 = load i32, ptr %buttons_state59, align 4
  %and60 = and i32 %58, %not
  store i32 %and60, ptr %buttons_state59, align 4
  br label %if.end61

if.end61:                                         ; preds = %if.else55, %if.end54
  br label %sw.epilog

sw.default:                                       ; preds = %if.end
  br label %sw.epilog

sw.epilog:                                        ; preds = %sw.default, %if.end61, %if.end36, %if.end16
  ret void
}