; Function Attrs: nounwind sspstrong uwtable
define internal void @hid_pointer_event(ptr noundef captures(none) %dev, ptr readnone captures(none) %src, ptr noundef readonly captures(none) %evt) #1 {
entry:
  %n = getelementptr inbounds nuw i8, ptr %dev, i64 264
  %0 = load i32, ptr %n, align 8
  %cmp = icmp ult i32 %0, 16
  br i1 %cmp, label %if.end, label %if.else

if.else:                                          ; preds = %entry
  tail call void @__assert_fail(ptr noundef nonnull @.str.22, ptr noundef nonnull @.str.14, i32 noundef 125, ptr noundef nonnull @__PRETTY_FUNCTION__.hid_pointer_event) #13
  unreachable

if.end:                                           ; preds = %entry
  %head = getelementptr inbounds nuw i8, ptr %dev, i64 260
  %1 = load i32, ptr %head, align 4
  %add = add i32 %1, %0
  %and = and i32 %add, 15
  %idxprom = zext nneg i32 %and to i64
  %arrayidx = getelementptr [16 x %struct.HIDPointerEvent], ptr %dev, i64 0, i64 %idxprom
  %2 = load i32, ptr %evt, align 8
  switch i32 %2, label %sw.epilog [
    i32 2, label %sw.bb
    i32 3, label %sw.bb17
    i32 1, label %sw.bb37
  ]

sw.bb:                                            ; preds = %if.end
  %u = getelementptr inbounds nuw i8, ptr %evt, i64 8
  %3 = load ptr, ptr %u, align 8
  %4 = load i32, ptr %3, align 8
  switch i32 %4, label %sw.epilog [
    i32 0, label %if.then3
    i32 1, label %if.then10
  ]

if.then3:                                         ; preds = %sw.bb
  %value = getelementptr inbounds nuw i8, ptr %3, i64 8
  %5 = load i64, ptr %value, align 8
  %6 = load i32, ptr %arrayidx, align 4
  %7 = trunc i64 %5 to i32
  %conv5 = add i32 %6, %7
  store i32 %conv5, ptr %arrayidx, align 4
  br label %sw.epilog

if.then10:                                        ; preds = %sw.bb
  %value11 = getelementptr inbounds nuw i8, ptr %3, i64 8
  %8 = load i64, ptr %value11, align 8
  %ydy = getelementptr inbounds nuw i8, ptr %arrayidx, i64 4
  %9 = load i32, ptr %ydy, align 4
  %10 = trunc i64 %8 to i32
  %conv14 = add i32 %9, %10
  store i32 %conv14, ptr %ydy, align 4
  br label %sw.epilog

sw.bb17:                                          ; preds = %if.end
  %u18 = getelementptr inbounds nuw i8, ptr %evt, i64 8
  %11 = load ptr, ptr %u18, align 8
  %12 = load i32, ptr %11, align 8
  switch i32 %12, label %sw.epilog [
    i32 0, label %if.then23
    i32 1, label %if.then31
  ]

if.then23:                                        ; preds = %sw.bb17
  %value24 = getelementptr inbounds nuw i8, ptr %11, i64 8
  %13 = load i64, ptr %value24, align 8
  %conv25 = trunc i64 %13 to i32
  store i32 %conv25, ptr %arrayidx, align 4
  br label %sw.epilog

if.then31:                                        ; preds = %sw.bb17
  %value32 = getelementptr inbounds nuw i8, ptr %11, i64 8
  %14 = load i64, ptr %value32, align 8
  %conv33 = trunc i64 %14 to i32
  %ydy34 = getelementptr inbounds nuw i8, ptr %arrayidx, i64 4
  store i32 %conv33, ptr %ydy34, align 4
  br label %sw.epilog

sw.bb37:                                          ; preds = %if.end
  %u38 = getelementptr inbounds nuw i8, ptr %evt, i64 8
  %15 = load ptr, ptr %u38, align 8
  %down = getelementptr inbounds nuw i8, ptr %15, i64 4
  %16 = load i8, ptr %down, align 4
  %tobool = trunc i8 %16 to i1
  %17 = load i32, ptr %15, align 4
  %idxprom41 = zext i32 %17 to i64
  %arrayidx42 = getelementptr [10 x i32], ptr @hid_pointer_event.bmap, i64 0, i64 %idxprom41
  %18 = load i32, ptr %arrayidx42, align 4
  br i1 %tobool, label %if.then40, label %if.else55

if.then40:                                        ; preds = %sw.bb37
  %buttons_state = getelementptr inbounds nuw i8, ptr %arrayidx, i64 12
  %19 = load i32, ptr %buttons_state, align 4
  %or = or i32 %19, %18
  store i32 %or, ptr %buttons_state, align 4
  %20 = load i32, ptr %15, align 4
  switch i32 %20, label %sw.epilog [
    i32 3, label %if.then46
    i32 4, label %if.then51
  ]

if.then46:                                        ; preds = %if.then40
  %dz = getelementptr inbounds nuw i8, ptr %arrayidx, i64 8
  %21 = load i32, ptr %dz, align 4
  %dec = add i32 %21, -1
  store i32 %dec, ptr %dz, align 4
  br label %sw.epilog

if.then51:                                        ; preds = %if.then40
  %dz52 = getelementptr inbounds nuw i8, ptr %arrayidx, i64 8
  %22 = load i32, ptr %dz52, align 4
  %inc = add i32 %22, 1
  store i32 %inc, ptr %dz52, align 4
  br label %sw.epilog

if.else55:                                        ; preds = %sw.bb37
  %not = xor i32 %18, -1
  %buttons_state59 = getelementptr inbounds nuw i8, ptr %arrayidx, i64 12
  %23 = load i32, ptr %buttons_state59, align 4
  %and60 = and i32 %23, %not
  store i32 %and60, ptr %buttons_state59, align 4
  br label %sw.epilog

sw.epilog:                                        ; preds = %if.then40, %sw.bb17, %sw.bb, %if.end, %if.else55, %if.then51, %if.then46, %if.then23, %if.then31, %if.then3, %if.then10
  ret void
}